target datalayout = "e-m:e-p270:32:32-p271:32:32-p272:64:64-i64:64-i128:128-f80:128-n8:16:32:64-S128"
target triple = "x86_64-pc-linux-gnu"

%struct.mbedtls_ssl_context = type { ptr, i32, i32, i32, i32, i32, ptr, ptr, ptr, ptr, ptr, ptr, ptr, ptr, ptr, ptr, ptr, ptr, ptr, ptr, ptr, ptr, ptr, ptr, ptr, ptr, ptr, ptr, ptr, ptr, ptr, ptr, ptr, i32, i64, i64, i16, i64, i64, i64, i64, i32, i32, i8, i8, i32, i8, ptr, ptr, ptr, ptr, ptr, ptr, ptr, i32, i64, i64, [8 x i8], i16, ptr, ptr, ptr, i64, i32, i64, [12 x i8], [12 x i8], [32 x i8], i8, i8, ptr, ptr, %union.mbedtls_ssl_user_data_t }
%union.mbedtls_ssl_user_data_t = type { i64 }
%struct.mbedtls_ssl_session = type { i8, i8, i8, i32, i64, i32, i64, [32 x i8], [48 x i8], ptr, i32, ptr, i64, i32, i64, i32, i8, i8, [48 x i8], ptr, i64, i32, %struct.mbedtls_ssl_tls13_application_secrets }
%struct.mbedtls_ssl_tls13_application_secrets = type { [64 x i8], [64 x i8], [64 x i8], [64 x i8] }
%struct.mbedtls_ssl_handshake_params = type { i8, i8, i8, i8, i8, i32, i8, i8, i8, i8, ptr, ptr, ptr, ptr, ptr, i8, i8, i8, i8, i16, i16, [20 x i16], ptr, ptr, %struct.mbedtls_dhm_context, %struct.mbedtls_ecdh_context, i16, i64, i32, i8, [1024 x i8], i64, ptr, ptr, i64, i16, ptr, ptr, ptr, ptr, %struct.anon, ptr, i16, i8, i32, i32, i32, ptr, ptr, ptr, i32, ptr, [8 x i8], i8, [32 x i8], i8, i16, %struct.mbedtls_md_context_t, %struct.mbedtls_md_context_t, i16, i8, %union.anon.1, [64 x i8], [1076 x i8], i64, i32, i32, i8, ptr, ptr, %union.anon.4, %struct.mbedtls_ssl_tls13_handshake_secrets, ptr, i64, ptr }
%struct.mbedtls_dhm_context = type { %struct.mbedtls_mpi, %struct.mbedtls_mpi, %struct.mbedtls_mpi, %struct.mbedtls_mpi, %struct.mbedtls_mpi, %struct.mbedtls_mpi, %struct.mbedtls_mpi, %struct.mbedtls_mpi, %struct.mbedtls_mpi, %struct.mbedtls_mpi }
%struct.mbedtls_mpi = type { ptr, i16, i16 }
%struct.mbedtls_ecdh_context = type { i8, i32, i32, %union.anon }
%union.anon = type { %struct.mbedtls_ecdh_context_mbed }
%struct.mbedtls_ecdh_context_mbed = type { %struct.mbedtls_ecp_group, %struct.mbedtls_mpi, %struct.mbedtls_ecp_point, %struct.mbedtls_ecp_point, %struct.mbedtls_mpi }
%struct.mbedtls_ecp_group = type { i32, %struct.mbedtls_mpi, %struct.mbedtls_mpi, %struct.mbedtls_mpi, %struct.mbedtls_ecp_point, %struct.mbedtls_mpi, i64, i64, i32, ptr, ptr, ptr, ptr, ptr, i64 }
%struct.mbedtls_ecp_point = type { %struct.mbedtls_mpi, %struct.mbedtls_mpi, %struct.mbedtls_mpi }
%struct.anon = type { i64, i8, [4 x %struct.mbedtls_ssl_hs_buffer], %struct.anon.0 }
%struct.mbedtls_ssl_hs_buffer = type { i8, ptr, i64 }
%struct.anon.0 = type { ptr, i64, i32 }
%struct.mbedtls_md_context_t = type { ptr, ptr, ptr }
%union.anon.1 = type { %struct.anon.2 }
%struct.anon.2 = type { i8, [64 x i8], i64 }
%union.anon.4 = type { [64 x i8] }
%struct.mbedtls_ssl_tls13_handshake_secrets = type { [64 x i8], [64 x i8] }
%struct.mbedtls_ssl_config = type { i32, i32, i8, i8, i8, i8, i8, i8, i8, i8, i8, i8, i16, i8, i8, i8, ptr, i32, ptr, ptr, ptr, ptr, ptr, ptr, ptr, ptr, ptr, ptr, ptr, ptr, ptr, ptr, ptr, ptr, ptr, ptr, ptr, i64, ptr, ptr, ptr, ptr, ptr, ptr, ptr, ptr, %struct.mbedtls_mpi, %struct.mbedtls_mpi, ptr, i64, ptr, i64, ptr, i32, i32, i32, i32, [8 x i8], i32, i32, %union.mbedtls_ssl_user_data_t, ptr, ptr }

@.str = private unnamed_addr constant [130 x i8] c"generated/home/dtcxzyw/WorkSpace/Projects/compilers/llvm-opt-benchmark/bench/lief/bench_build/mbed_src/library/ssl_tls13_server.c\00", align 1
@.str.113 = private unnamed_addr constant [29 x i8] c"=> write certificate request\00", align 1
@.str.114 = private unnamed_addr constant [34 x i8] c"<= skip write certificate request\00", align 1
@.str.115 = private unnamed_addr constant [20 x i8] c"should never happen\00", align 1
@.str.116 = private unnamed_addr constant [29 x i8] c"<= write certificate request\00", align 1

; Function Attrs: alwaysinline nounwind uwtable
define internal void @mbedtls_put_unaligned_uint16(ptr noundef %0, i16 noundef zeroext %1) #5 {
  %3 = alloca ptr, align 8
  %4 = alloca i16, align 2
  store ptr %0, ptr %3, align 8, !tbaa !81
  store i16 %1, ptr %4, align 2, !tbaa !82
  %5 = load ptr, ptr %3, align 8, !tbaa !81
  call void @llvm.memcpy.p0.p0.i64(ptr align 1 %5, ptr align 2 %4, i64 2, i1 false)
  ret void
}

; Function Attrs: inlinehint nounwind uwtable
define internal i32 @mbedtls_ssl_chk_buf_ptr(ptr noundef %0, ptr noundef %1, i64 noundef %2) #3 {
  %4 = alloca ptr, align 8
  %5 = alloca ptr, align 8
  %6 = alloca i64, align 8
  store ptr %0, ptr %4, align 8, !tbaa !41
  store ptr %1, ptr %5, align 8, !tbaa !41
  store i64 %2, ptr %6, align 8, !tbaa !42
  %7 = load ptr, ptr %4, align 8, !tbaa !41
  %8 = load ptr, ptr %5, align 8, !tbaa !41
  %9 = icmp ugt ptr %7, %8
  br i1 %9, label %18, label %10

10:                                               ; preds = %3
  %11 = load i64, ptr %6, align 8, !tbaa !42
  %12 = load ptr, ptr %5, align 8, !tbaa !41
  %13 = load ptr, ptr %4, align 8, !tbaa !41
  %14 = ptrtoint ptr %12 to i64
  %15 = ptrtoint ptr %13 to i64
  %16 = sub i64 %14, %15
  %17 = icmp ugt i64 %11, %16
  br label %18

18:                                               ; preds = %10, %3
  %19 = phi i1 [ true, %3 ], [ %17, %10 ]
  %20 = zext i1 %19 to i32
  ret i32 %20
}

; Function Attrs: inlinehint nounwind uwtable
define internal void @mbedtls_ssl_handshake_set_state(ptr noundef %0, i32 noundef %1) #3 {
  %3 = alloca ptr, align 8
  %4 = alloca i32, align 4
  store ptr %0, ptr %3, align 8, !tbaa !3
  store i32 %1, ptr %4, align 4, !tbaa !8
  %5 = load i32, ptr %4, align 4, !tbaa !8
  %6 = load ptr, ptr %3, align 8, !tbaa !3
  %7 = getelementptr inbounds nuw %struct.mbedtls_ssl_context, ptr %6, i32 0, i32 1
  store i32 %5, ptr %7, align 8, !tbaa !10
  ret void
}

; Function Attrs: nounwind uwtable
define internal i32 @ssl_tls13_write_certificate_request_body(ptr noundef %0, ptr noundef %1, ptr noundef %2, ptr noundef %3) #0 {
  %5 = alloca i32, align 4
  %6 = alloca ptr, align 8
  %7 = alloca ptr, align 8
  %8 = alloca ptr, align 8
  %9 = alloca ptr, align 8
  %10 = alloca i32, align 4
  %11 = alloca ptr, align 8
  %12 = alloca i64, align 8
  %13 = alloca ptr, align 8
  %14 = alloca i32, align 4
  store ptr %0, ptr %6, align 8, !tbaa !3
  store ptr %1, ptr %7, align 8, !tbaa !41
  store ptr %2, ptr %8, align 8, !tbaa !41
  store ptr %3, ptr %9, align 8, !tbaa !120
  call void @llvm.lifetime.start.p0(i64 4, ptr %10) #10
  store i32 -110, ptr %10, align 4, !tbaa !8
  call void @llvm.lifetime.start.p0(i64 8, ptr %11) #10
  %15 = load ptr, ptr %7, align 8, !tbaa !41
  store ptr %15, ptr %11, align 8, !tbaa !41
  call void @llvm.lifetime.start.p0(i64 8, ptr %12) #10
  store i64 0, ptr %12, align 8, !tbaa !42
  call void @llvm.lifetime.start.p0(i64 8, ptr %13) #10
  %16 = load ptr, ptr %9, align 8, !tbaa !120
  store i64 0, ptr %16, align 8, !tbaa !42
  br label %17

17:                                               ; preds = %4
  %18 = load ptr, ptr %11, align 8, !tbaa !41
  %19 = load ptr, ptr %8, align 8, !tbaa !41
  %20 = call i32 @mbedtls_ssl_chk_buf_ptr(ptr noundef %18, ptr noundef %19, i64 noundef 3)
  %21 = icmp ne i32 %20, 0
  br i1 %21, label %22, label %23

22:                                               ; preds = %17
  store i32 -27136, ptr %5, align 4
  store i32 1, ptr %14, align 4
  br label %65

23:                                               ; preds = %17
  br label %24

24:                                               ; preds = %23
  br label %25

25:                                               ; preds = %24
  %26 = load ptr, ptr %11, align 8, !tbaa !41
  %27 = getelementptr inbounds nuw i8, ptr %26, i32 1
  store ptr %27, ptr %11, align 8, !tbaa !41
  store i8 0, ptr %26, align 1, !tbaa !56
  %28 = load ptr, ptr %11, align 8, !tbaa !41
  store ptr %28, ptr %13, align 8, !tbaa !41
  %29 = load ptr, ptr %11, align 8, !tbaa !41
  %30 = getelementptr inbounds i8, ptr %29, i64 2
  store ptr %30, ptr %11, align 8, !tbaa !41
  %31 = load ptr, ptr %6, align 8, !tbaa !3
  %32 = load ptr, ptr %11, align 8, !tbaa !41
  %33 = load ptr, ptr %8, align 8, !tbaa !41
  %34 = call i32 @mbedtls_ssl_write_sig_alg_ext(ptr noundef %31, ptr noundef %32, ptr noundef %33, ptr noundef %12)
  store i32 %34, ptr %10, align 4, !tbaa !8
  %35 = load i32, ptr %10, align 4, !tbaa !8
  %36 = icmp ne i32 %35, 0
  br i1 %36, label %37, label %39

37:                                               ; preds = %25
  %38 = load i32, ptr %10, align 4, !tbaa !8
  store i32 %38, ptr %5, align 4
  store i32 1, ptr %14, align 4
  br label %65

39:                                               ; preds = %25
  %40 = load i64, ptr %12, align 8, !tbaa !42
  %41 = load ptr, ptr %11, align 8, !tbaa !41
  %42 = getelementptr inbounds nuw i8, ptr %41, i64 %40
  store ptr %42, ptr %11, align 8, !tbaa !41
  %43 = load ptr, ptr %13, align 8, !tbaa !41
  %44 = getelementptr inbounds i8, ptr %43, i64 0
  %45 = load ptr, ptr %11, align 8, !tbaa !41
  %46 = load ptr, ptr %13, align 8, !tbaa !41
  %47 = ptrtoint ptr %45 to i64
  %48 = ptrtoint ptr %46 to i64
  %49 = sub i64 %47, %48
  %50 = sub nsw i64 %49, 2
  %51 = trunc i64 %50 to i16
  %52 = call i16 @llvm.bswap.i16(i16 %51)
  call void @mbedtls_put_unaligned_uint16(ptr noundef %44, i16 noundef zeroext %52)
  %53 = load ptr, ptr %11, align 8, !tbaa !41
  %54 = load ptr, ptr %7, align 8, !tbaa !41
  %55 = ptrtoint ptr %53 to i64
  %56 = ptrtoint ptr %54 to i64
  %57 = sub i64 %55, %56
  %58 = load ptr, ptr %9, align 8, !tbaa !120
  store i64 %57, ptr %58, align 8, !tbaa !42
  %59 = load ptr, ptr %6, align 8, !tbaa !3
  %60 = load ptr, ptr %6, align 8, !tbaa !3
  %61 = getelementptr inbounds nuw %struct.mbedtls_ssl_context, ptr %60, i32 0, i32 16
  %62 = load ptr, ptr %61, align 8, !tbaa !19
  %63 = getelementptr inbounds nuw %struct.mbedtls_ssl_handshake_params, ptr %62, i32 0, i32 65
  %64 = load i32, ptr %63, align 8, !tbaa !121
  call void @mbedtls_ssl_print_extensions(ptr noundef %59, i32 noundef 3, ptr noundef @.str, i32 noundef 2736, i32 noundef 13, i32 noundef %64, ptr noundef null)
  store i32 0, ptr %5, align 4
  store i32 1, ptr %14, align 4
  br label %65

65:                                               ; preds = %39, %37, %22
  call void @llvm.lifetime.end.p0(i64 8, ptr %13) #10
  call void @llvm.lifetime.end.p0(i64 8, ptr %12) #10
  call void @llvm.lifetime.end.p0(i64 8, ptr %11) #10
  call void @llvm.lifetime.end.p0(i64 4, ptr %10) #10
  %66 = load i32, ptr %5, align 4
  ret i32 %66
}

; Function Attrs: nounwind uwtable
define internal i32 @ssl_tls13_certificate_request_coordinate(ptr noundef %0) #0 {
  %2 = alloca i32, align 4
  %3 = alloca ptr, align 8
  %4 = alloca i32, align 4
  %5 = alloca i32, align 4
  store ptr %0, ptr %3, align 8, !tbaa !3
  call void @llvm.lifetime.start.p0(i64 4, ptr %4) #10
  %6 = load ptr, ptr %3, align 8, !tbaa !3
  %7 = getelementptr inbounds nuw %struct.mbedtls_ssl_context, ptr %6, i32 0, i32 16
  %8 = load ptr, ptr %7, align 8, !tbaa !19
  %9 = getelementptr inbounds nuw %struct.mbedtls_ssl_handshake_params, ptr %8, i32 0, i32 2
  %10 = load i8, ptr %9, align 2, !tbaa !126
  %11 = zext i8 %10 to i32
  %12 = icmp ne i32 %11, 3
  br i1 %12, label %13, label %20

13:                                               ; preds = %1
  %14 = load ptr, ptr %3, align 8, !tbaa !3
  %15 = getelementptr inbounds nuw %struct.mbedtls_ssl_context, ptr %14, i32 0, i32 16
  %16 = load ptr, ptr %15, align 8, !tbaa !19
  %17 = getelementptr inbounds nuw %struct.mbedtls_ssl_handshake_params, ptr %16, i32 0, i32 2
  %18 = load i8, ptr %17, align 2, !tbaa !126
  %19 = zext i8 %18 to i32
  store i32 %19, ptr %4, align 4, !tbaa !8
  br label %27

20:                                               ; preds = %1
  %21 = load ptr, ptr %3, align 8, !tbaa !3
  %22 = getelementptr inbounds nuw %struct.mbedtls_ssl_context, ptr %21, i32 0, i32 0
  %23 = load ptr, ptr %22, align 8, !tbaa !43
  %24 = getelementptr inbounds nuw %struct.mbedtls_ssl_config, ptr %23, i32 0, i32 4
  %25 = load i8, ptr %24, align 2, !tbaa !127
  %26 = zext i8 %25 to i32
  store i32 %26, ptr %4, align 4, !tbaa !8
  br label %27

27:                                               ; preds = %20, %13
  %28 = load i32, ptr %4, align 4, !tbaa !8
  %29 = icmp eq i32 %28, 0
  br i1 %29, label %30, label %35

30:                                               ; preds = %27
  %31 = load ptr, ptr %3, align 8, !tbaa !3
  %32 = getelementptr inbounds nuw %struct.mbedtls_ssl_context, ptr %31, i32 0, i32 15
  %33 = load ptr, ptr %32, align 8, !tbaa !20
  %34 = getelementptr inbounds nuw %struct.mbedtls_ssl_session, ptr %33, i32 0, i32 10
  store i32 128, ptr %34, align 8, !tbaa !128
  store i32 1, ptr %2, align 4
  store i32 1, ptr %5, align 4
  br label %40

35:                                               ; preds = %27
  %36 = load ptr, ptr %3, align 8, !tbaa !3
  %37 = getelementptr inbounds nuw %struct.mbedtls_ssl_context, ptr %36, i32 0, i32 16
  %38 = load ptr, ptr %37, align 8, !tbaa !19
  %39 = getelementptr inbounds nuw %struct.mbedtls_ssl_handshake_params, ptr %38, i32 0, i32 3
  store i8 1, ptr %39, align 1, !tbaa !129
  store i32 0, ptr %2, align 4
  store i32 1, ptr %5, align 4
  br label %40

40:                                               ; preds = %35, %30
  call void @llvm.lifetime.end.p0(i64 4, ptr %4) #10
  %41 = load i32, ptr %2, align 4
  ret i32 %41
}

; Function Attrs: nounwind uwtable
define internal i32 @ssl_tls13_write_certificate_request(ptr noundef %0) #0 {
  %2 = alloca i32, align 4
  %3 = alloca ptr, align 8
  %4 = alloca i32, align 4
  %5 = alloca ptr, align 8
  %6 = alloca i64, align 8
  %7 = alloca i64, align 8
  %8 = alloca i32, align 4
  store ptr %0, ptr %3, align 8, !tbaa !3
  call void @llvm.lifetime.start.p0(i64 4, ptr %4) #10
  store i32 -110, ptr %4, align 4, !tbaa !8
  %9 = load ptr, ptr %3, align 8, !tbaa !3
  call void (ptr, i32, ptr, i32, ptr, ...) @mbedtls_debug_print_msg(ptr noundef %9, i32 noundef 2, ptr noundef @.str, i32 noundef 2746, ptr noundef @.str.113)
  br label %10

10:                                               ; preds = %1
  %11 = load ptr, ptr %3, align 8, !tbaa !3
  %12 = call i32 @ssl_tls13_certificate_request_coordinate(ptr noundef %11)
  store i32 %12, ptr %4, align 4, !tbaa !8
  %13 = load i32, ptr %4, align 4, !tbaa !8
  %14 = icmp slt i32 %13, 0
  br i1 %14, label %15, label %16

15:                                               ; preds = %10
  br label %79

16:                                               ; preds = %10
  br label %17

17:                                               ; preds = %16
  br label %18

18:                                               ; preds = %17
  %19 = load i32, ptr %4, align 4, !tbaa !8
  %20 = icmp eq i32 %19, 0
  br i1 %20, label %21, label %69

21:                                               ; preds = %18
  call void @llvm.lifetime.start.p0(i64 8, ptr %5) #10
  call void @llvm.lifetime.start.p0(i64 8, ptr %6) #10
  call void @llvm.lifetime.start.p0(i64 8, ptr %7) #10
  br label %22

22:                                               ; preds = %21
  %23 = load ptr, ptr %3, align 8, !tbaa !3
  %24 = call i32 @mbedtls_ssl_start_handshake_msg(ptr noundef %23, i8 noundef zeroext 13, ptr noundef %5, ptr noundef %6)
  store i32 %24, ptr %4, align 4, !tbaa !8
  %25 = load i32, ptr %4, align 4, !tbaa !8
  %26 = icmp ne i32 %25, 0
  br i1 %26, label %27, label %28

27:                                               ; preds = %22
  store i32 4, ptr %8, align 4
  br label %66

28:                                               ; preds = %22
  br label %29

29:                                               ; preds = %28
  br label %30

30:                                               ; preds = %29
  br label %31

31:                                               ; preds = %30
  %32 = load ptr, ptr %3, align 8, !tbaa !3
  %33 = load ptr, ptr %5, align 8, !tbaa !41
  %34 = load ptr, ptr %5, align 8, !tbaa !41
  %35 = load i64, ptr %6, align 8, !tbaa !42
  %36 = getelementptr inbounds nuw i8, ptr %34, i64 %35
  %37 = call i32 @ssl_tls13_write_certificate_request_body(ptr noundef %32, ptr noundef %33, ptr noundef %36, ptr noundef %7)
  store i32 %37, ptr %4, align 4, !tbaa !8
  %38 = load i32, ptr %4, align 4, !tbaa !8
  %39 = icmp ne i32 %38, 0
  br i1 %39, label %40, label %41

40:                                               ; preds = %31
  store i32 4, ptr %8, align 4
  br label %66

41:                                               ; preds = %31
  br label %42

42:                                               ; preds = %41
  br label %43

43:                                               ; preds = %42
  br label %44

44:                                               ; preds = %43
  %45 = load ptr, ptr %3, align 8, !tbaa !3
  %46 = load ptr, ptr %5, align 8, !tbaa !41
  %47 = load i64, ptr %7, align 8, !tbaa !42
  %48 = call i32 @mbedtls_ssl_add_hs_msg_to_checksum(ptr noundef %45, i32 noundef 13, ptr noundef %46, i64 noundef %47)
  store i32 %48, ptr %4, align 4, !tbaa !8
  %49 = load i32, ptr %4, align 4, !tbaa !8
  %50 = icmp ne i32 %49, 0
  br i1 %50, label %51, label %52

51:                                               ; preds = %44
  store i32 4, ptr %8, align 4
  br label %66

52:                                               ; preds = %44
  br label %53

53:                                               ; preds = %52
  br label %54

54:                                               ; preds = %53
  br label %55

55:                                               ; preds = %54
  %56 = load ptr, ptr %3, align 8, !tbaa !3
  %57 = load i64, ptr %6, align 8, !tbaa !42
  %58 = load i64, ptr %7, align 8, !tbaa !42
  %59 = call i32 @mbedtls_ssl_finish_handshake_msg(ptr noundef %56, i64 noundef %57, i64 noundef %58)
  store i32 %59, ptr %4, align 4, !tbaa !8
  %60 = load i32, ptr %4, align 4, !tbaa !8
  %61 = icmp ne i32 %60, 0
  br i1 %61, label %62, label %63

62:                                               ; preds = %55
  store i32 4, ptr %8, align 4
  br label %66

63:                                               ; preds = %55
  br label %64

64:                                               ; preds = %63
  br label %65

65:                                               ; preds = %64
  store i32 0, ptr %8, align 4
  br label %66

66:                                               ; preds = %62, %51, %40, %27, %65
  call void @llvm.lifetime.end.p0(i64 8, ptr %7) #10
  call void @llvm.lifetime.end.p0(i64 8, ptr %6) #10
  call void @llvm.lifetime.end.p0(i64 8, ptr %5) #10
  %67 = load i32, ptr %8, align 4
  switch i32 %67, label %82 [
    i32 0, label %68
    i32 4, label %79
  ]

68:                                               ; preds = %66
  br label %77

69:                                               ; preds = %18
  %70 = load i32, ptr %4, align 4, !tbaa !8
  %71 = icmp eq i32 %70, 1
  br i1 %71, label %72, label %74

72:                                               ; preds = %69
  %73 = load ptr, ptr %3, align 8, !tbaa !3
  call void (ptr, i32, ptr, i32, ptr, ...) @mbedtls_debug_print_msg(ptr noundef %73, i32 noundef 2, ptr noundef @.str, i32 noundef 2768, ptr noundef @.str.114)
  store i32 0, ptr %4, align 4, !tbaa !8
  br label %76

74:                                               ; preds = %69
  %75 = load ptr, ptr %3, align 8, !tbaa !3
  call void (ptr, i32, ptr, i32, ptr, ...) @mbedtls_debug_print_msg(ptr noundef %75, i32 noundef 1, ptr noundef @.str, i32 noundef 2771, ptr noundef @.str.115)
  store i32 -27648, ptr %4, align 4, !tbaa !8
  br label %79

76:                                               ; preds = %72
  br label %77

77:                                               ; preds = %76, %68
  %78 = load ptr, ptr %3, align 8, !tbaa !3
  call void @mbedtls_ssl_handshake_set_state(ptr noundef %78, i32 noundef 3)
  br label %79

79:                                               ; preds = %77, %66, %74, %15
  %80 = load ptr, ptr %3, align 8, !tbaa !3
  call void (ptr, i32, ptr, i32, ptr, ...) @mbedtls_debug_print_msg(ptr noundef %80, i32 noundef 2, ptr noundef @.str, i32 noundef 2779, ptr noundef @.str.116)
  %81 = load i32, ptr %4, align 4, !tbaa !8
  store i32 %81, ptr %2, align 4
  store i32 1, ptr %8, align 4
  br label %82

82:                                               ; preds = %79, %66
  call void @llvm.lifetime.end.p0(i64 4, ptr %4) #10
  %83 = load i32, ptr %2, align 4
  ret i32 %83
}