; Function Attrs: nounwind uwtable
define internal fastcc i32 @ssl_tls13_write_certificate_request(ptr noundef %0) unnamed_addr #0 {
  %2 = alloca i64, align 8
  %3 = alloca ptr, align 8
  %4 = alloca i64, align 8
  tail call void (ptr, i32, ptr, i32, ptr, ...) @mbedtls_debug_print_msg(ptr noundef %0, i32 noundef 2, ptr noundef nonnull @.str, i32 noundef 2746, ptr noundef nonnull @.str.113) #9
  %5 = getelementptr inbounds nuw i8, ptr %0, i64 112
  %6 = load ptr, ptr %5, align 8, !tbaa !16
  %7 = getelementptr inbounds nuw i8, ptr %6, i64 2
  %8 = load i8, ptr %7, align 2, !tbaa !78
  %.not.i = icmp eq i8 %8, 3
  br i1 %.not.i, label %9, label %13

9:                                                ; preds = %1
  %10 = load ptr, ptr %0, align 8, !tbaa !40
  %11 = getelementptr inbounds nuw i8, ptr %10, i64 10
  %12 = load i8, ptr %11, align 2, !tbaa !79
  br label %13

13:                                               ; preds = %9, %1
  %.0.in.i = phi i8 [ %12, %9 ], [ %8, %1 ]
  %14 = icmp eq i8 %.0.in.i, 0
  br i1 %14, label %47, label %15

15:                                               ; preds = %13
  %16 = getelementptr inbounds nuw i8, ptr %6, i64 3
  store i8 1, ptr %16, align 1, !tbaa !80
  call void @llvm.lifetime.start.p0(i64 8, ptr nonnull %3) #9
  call void @llvm.lifetime.start.p0(i64 8, ptr nonnull %4) #9
  %17 = call i32 @mbedtls_ssl_start_handshake_msg(ptr noundef nonnull %0, i8 noundef zeroext 13, ptr noundef nonnull %3, ptr noundef nonnull %4) #9
  %.not = icmp eq i32 %17, 0
  br i1 %.not, label %18, label %.thread

18:                                               ; preds = %15
  %19 = load ptr, ptr %3, align 8, !tbaa !38
  %20 = load i64, ptr %4, align 8, !tbaa !39
  call void @llvm.lifetime.start.p0(i64 8, ptr nonnull %2) #9
  store i64 0, ptr %2, align 8, !tbaa !39
  %21 = ptrtoint ptr %19 to i64
  %22 = icmp ugt i64 %20, 2
  br i1 %22, label %23, label %ssl_tls13_write_certificate_request_body.exit.thread

23:                                               ; preds = %18
  %24 = getelementptr inbounds nuw i8, ptr %19, i64 %20
  store i8 0, ptr %19, align 1, !tbaa !47
  %25 = getelementptr inbounds nuw i8, ptr %19, i64 3
  %26 = call i32 @mbedtls_ssl_write_sig_alg_ext(ptr noundef nonnull %0, ptr noundef nonnull %25, ptr noundef nonnull %24, ptr noundef nonnull %2) #9
  %.not22.i = icmp eq i32 %26, 0
  br i1 %.not22.i, label %27, label %ssl_tls13_write_certificate_request_body.exit.thread

ssl_tls13_write_certificate_request_body.exit.thread: ; preds = %18, %23
  %.0.i.ph = phi i32 [ %26, %23 ], [ -27136, %18 ]
  call void @llvm.lifetime.end.p0(i64 8, ptr nonnull %2) #9
  br label %.thread

27:                                               ; preds = %23
  %28 = getelementptr inbounds nuw i8, ptr %19, i64 1
  %29 = load i64, ptr %2, align 8, !tbaa !39
  %30 = getelementptr inbounds nuw i8, ptr %25, i64 %29
  %31 = ptrtoint ptr %30 to i64
  %32 = ptrtoint ptr %28 to i64
  %33 = sub i64 %31, %32
  %34 = trunc i64 %33 to i16
  %35 = add i16 %34, -2
  %36 = call i16 @llvm.bswap.i16(i16 %35)
  store i16 %36, ptr %28, align 1
  %37 = sub i64 %31, %21
  %38 = load ptr, ptr %5, align 8, !tbaa !16
  %39 = getelementptr inbounds nuw i8, ptr %38, i64 3272
  %40 = load i32, ptr %39, align 8, !tbaa !77
  call void @mbedtls_ssl_print_extensions(ptr noundef nonnull %0, i32 noundef 3, ptr noundef nonnull @.str, i32 noundef 2736, i32 noundef 13, i32 noundef %40, ptr noundef null) #9
  call void @llvm.lifetime.end.p0(i64 8, ptr nonnull %2) #9
  %41 = load ptr, ptr %3, align 8, !tbaa !38
  %42 = call i32 @mbedtls_ssl_add_hs_msg_to_checksum(ptr noundef nonnull %0, i32 noundef 13, ptr noundef %41, i64 noundef %37) #9
  %.not29 = icmp eq i32 %42, 0
  br i1 %.not29, label %43, label %.thread

43:                                               ; preds = %27
  %44 = load i64, ptr %4, align 8, !tbaa !39
  %45 = call i32 @mbedtls_ssl_finish_handshake_msg(ptr noundef nonnull %0, i64 noundef %44, i64 noundef %37) #9
  %.not30 = icmp eq i32 %45, 0
  br i1 %.not30, label %46, label %.thread

.thread:                                          ; preds = %15, %27, %43, %ssl_tls13_write_certificate_request_body.exit.thread
  %.1.ph = phi i32 [ %.0.i.ph, %ssl_tls13_write_certificate_request_body.exit.thread ], [ %45, %43 ], [ %42, %27 ], [ %17, %15 ]
  call void @llvm.lifetime.end.p0(i64 8, ptr nonnull %4) #9
  call void @llvm.lifetime.end.p0(i64 8, ptr nonnull %3) #9
  br label %53

46:                                               ; preds = %43
  call void @llvm.lifetime.end.p0(i64 8, ptr nonnull %4) #9
  call void @llvm.lifetime.end.p0(i64 8, ptr nonnull %3) #9
  br label %51

47:                                               ; preds = %13
  %48 = getelementptr inbounds nuw i8, ptr %0, i64 104
  %49 = load ptr, ptr %48, align 8, !tbaa !17
  %50 = getelementptr inbounds nuw i8, ptr %49, i64 120
  store i32 128, ptr %50, align 8, !tbaa !81
  tail call void (ptr, i32, ptr, i32, ptr, ...) @mbedtls_debug_print_msg(ptr noundef nonnull %0, i32 noundef 2, ptr noundef nonnull @.str, i32 noundef 2768, ptr noundef nonnull @.str.114) #9
  br label %51

51:                                               ; preds = %46, %47
  %52 = getelementptr inbounds nuw i8, ptr %0, i64 8
  store i32 3, ptr %52, align 8, !tbaa !3
  br label %53

53:                                               ; preds = %.thread, %51
  %.019 = phi i32 [ 0, %51 ], [ %.1.ph, %.thread ]
  call void (ptr, i32, ptr, i32, ptr, ...) @mbedtls_debug_print_msg(ptr noundef nonnull %0, i32 noundef 2, ptr noundef nonnull @.str, i32 noundef 2779, ptr noundef nonnull @.str.116) #9
  ret i32 %.019
}